; ModuleID = '22/859.c'
source_filename = "22/859.c"
target datalayout = "e-m:e-p270:32:32-p271:32:32-p272:64:64-i64:64-f80:128-n8:16:32:64-S128"
target triple = "x86_64-pc-linux-gnu"

@.str = private unnamed_addr constant [3 x i8] c"%d\00", align 1
@.str.1 = private unnamed_addr constant [3 x i8] c"No\00", align 1

; Function Attrs: noinline nounwind uwtable
define dso_local i32 @main() #0 {
  %1 = alloca i32, align 4
  %2 = alloca i32, align 4
  %3 = alloca i32, align 4
  %4 = alloca i32, align 4
  %5 = alloca i32, align 4
  %6 = alloca i32, align 4
  %7 = alloca i32, align 4
  store i32 0, i32* %1, align 4
  store i32 44, i32* %5, align 4
  store i32 0, i32* %2, align 4
  store i32 0, i32* %6, align 4
  store i32 -1, i32* %7, align 4
  %8 = load i32, i32* %5, align 4
  store i32 %8, i32* %4, align 4
  br label %9

9:                                                ; preds = %34, %0
  %10 = load i32, i32* %4, align 4
  %11 = load i32, i32* %5, align 4
  %12 = icmp eq i32 %10, %11
  br i1 %12, label %13, label %36

13:                                               ; preds = %9
  %14 = call i32 (i8*, ...) @__isoc99_scanf(i8* getelementptr inbounds ([3 x i8], [3 x i8]* @.str, i64 0, i64 0), i32* %3)
  %15 = load i32, i32* %6, align 4
  %16 = add nsw i32 %15, 1
  store i32 %16, i32* %6, align 4
  %17 = load i32, i32* %2, align 4
  %18 = load i32, i32* %3, align 4
  %19 = icmp slt i32 %17, %18
  br i1 %19, label %20, label %23

20:                                               ; preds = %13
  %21 = load i32, i32* %2, align 4
  store i32 %21, i32* %7, align 4
  %22 = load i32, i32* %3, align 4
  store i32 %22, i32* %2, align 4
  br label %34

23:                                               ; preds = %13
  %24 = load i32, i32* %7, align 4
  %25 = load i32, i32* %3, align 4
  %26 = icmp slt i32 %24, %25
  br i1 %26, label %27, label %33

27:                                               ; preds = %23
  %28 = load i32, i32* %3, align 4
  %29 = load i32, i32* %2, align 4
  %30 = icmp slt i32 %28, %29
  br i1 %30, label %31, label %33

31:                                               ; preds = %27
  %32 = load i32, i32* %3, align 4
  store i32 %32, i32* %7, align 4
  br label %33

33:                                               ; preds = %31, %27, %23
  br label %34

34:                                               ; preds = %33, %20
  %35 = call i32 @getchar()
  store i32 %35, i32* %4, align 4
  br label %9

36:                                               ; preds = %9
  %37 = load i32, i32* %6, align 4
  %38 = icmp ne i32 %37, 1
  br i1 %38, label %39, label %45

39:                                               ; preds = %36
  %40 = load i32, i32* %7, align 4
  %41 = icmp ne i32 %40, 0
  br i1 %41, label %42, label %45

42:                                               ; preds = %39
  %43 = load i32, i32* %7, align 4
  %44 = call i32 (i8*, ...) @printf(i8* getelementptr inbounds ([3 x i8], [3 x i8]* @.str, i64 0, i64 0), i32 %43)
  br label %47

45:                                               ; preds = %39, %36
  %46 = call i32 (i8*, ...) @printf(i8* getelementptr inbounds ([3 x i8], [3 x i8]* @.str.1, i64 0, i64 0))
  br label %47

47:                                               ; preds = %45, %42
  ret i32 100
}

declare dso_local i32 @__isoc99_scanf(i8*, ...) #1

declare dso_local i32 @getchar() #1

declare dso_local i32 @printf(i8*, ...) #1


!llvm.module.flags = !{!0}
!llvm.ident = !{!1}

!0 = !{i32 1, !"wchar_size", i32 4}
!1 = !{!"clang version 10.0.0-4ubuntu1 "}
